target datalayout = "e-m:e-p270:32:32-p271:32:32-p272:64:64-i64:64-i128:128-f80:128-n8:16:32:64-S128"
target triple = "x86_64-pc-linux-gnu"

%"class.std::optional" = type { %"struct.std::_Optional_base" }
%"struct.std::_Optional_base" = type { %"struct.std::_Optional_payload" }
%"struct.std::_Optional_payload" = type { %"struct.std::_Optional_payload_base.base", [7 x i8] }
%"struct.std::_Optional_payload_base.base" = type <{ %"union.std::_Optional_payload_base<blst_p1_affine>::_Storage", i8 }>
%"union.std::_Optional_payload_base<blst_p1_affine>::_Storage" = type { %struct.blst_p1_affine }
%struct.blst_p1_affine = type { %struct.blst_fp, %struct.blst_fp }
%struct.blst_fp = type { [6 x i64] }
%struct.blst_p1 = type { %struct.blst_fp, %struct.blst_fp, %struct.blst_fp }
%"struct.std::_Optional_payload_base" = type <{ %"union.std::_Optional_payload_base<blst_p1_affine>::_Storage", i8, [7 x i8] }>

; Function Attrs: mustprogress nounwind uwtable
define linkonce_odr hidden noundef nonnull align 8 dereferenceable(96) ptr @_ZNKSt22_Optional_payload_baseI14blst_p1_affineE6_M_getEv(ptr noundef nonnull align 8 dereferenceable(97) %0) #0 comdat align 2 {
  %2 = alloca ptr, align 8
  store ptr %0, ptr %2, align 8, !tbaa !84
  %3 = load ptr, ptr %2, align 8
  %4 = getelementptr inbounds nuw %"struct.std::_Optional_payload_base", ptr %3, i32 0, i32 0
  ret ptr %4
}

; Function Attrs: mustprogress nounwind uwtable
define linkonce_odr hidden noundef nonnull align 8 dereferenceable(96) ptr @_ZNKSt19_Optional_base_implI14blst_p1_affineSt14_Optional_baseIS0_Lb1ELb1EEE6_M_getEv(ptr noundef nonnull align 1 dereferenceable(1) %0) #0 comdat align 2 {
  %2 = alloca ptr, align 8
  store ptr %0, ptr %2, align 8, !tbaa !91
  %3 = load ptr, ptr %2, align 8
  %4 = getelementptr inbounds nuw %"struct.std::_Optional_base", ptr %3, i32 0, i32 0
  %5 = call noundef nonnull align 8 dereferenceable(96) ptr @_ZNKSt22_Optional_payload_baseI14blst_p1_affineE6_M_getEv(ptr noundef nonnull align 8 dereferenceable(97) %4) #14
  ret ptr %5
}

; Function Attrs: mustprogress nounwind uwtable
define linkonce_odr hidden noundef zeroext i1 @_ZNKSt19_Optional_base_implI14blst_p1_affineSt14_Optional_baseIS0_Lb1ELb1EEE13_M_is_engagedEv(ptr noundef nonnull align 1 dereferenceable(1) %0) #0 comdat align 2 {
  %2 = alloca ptr, align 8
  store ptr %0, ptr %2, align 8, !tbaa !91
  %3 = load ptr, ptr %2, align 8
  %4 = getelementptr inbounds nuw %"struct.std::_Optional_base", ptr %3, i32 0, i32 0
  %5 = getelementptr inbounds nuw %"struct.std::_Optional_payload_base", ptr %4, i32 0, i32 1
  %6 = load i8, ptr %5, align 8, !tbaa !86, !range !79, !noundef !13
  %7 = trunc i8 %6 to i1
  ret i1 %7
}

; Function Attrs: mustprogress nounwind uwtable
define internal void @_ZN6evmone6crypto3bls12_GLOBAL__N_15storeEPhRK7blst_fp(ptr noundef %0, ptr noundef nonnull align 8 dereferenceable(48) %1) #0 personality ptr @__gxx_personality_v0 {
  %3 = alloca ptr, align 8
  %4 = alloca ptr, align 8
  store ptr %0, ptr %3, align 8, !tbaa !3
  store ptr %1, ptr %4, align 8, !tbaa !12
  %5 = load ptr, ptr %3, align 8, !tbaa !3
  call void @llvm.memset.p0.i64(ptr align 1 %5, i8 0, i64 16, i1 false)
  %6 = load ptr, ptr %3, align 8, !tbaa !3
  %7 = getelementptr inbounds i8, ptr %6, i64 16
  %8 = load ptr, ptr %4, align 8, !tbaa !12, !nonnull !13, !align !14
  invoke void @blst_bendian_from_fp(ptr noundef %7, ptr noundef %8)
          to label %9 unwind label %10

9:                                                ; preds = %2
  ret void

10:                                               ; preds = %2
  %11 = landingpad { ptr, i32 }
          catch ptr null
  %12 = extractvalue { ptr, i32 } %11, 0
  call void @__clang_call_terminate(ptr %12) #15
  unreachable
}

; Function Attrs: mustprogress nounwind uwtable
define linkonce_odr hidden noundef nonnull align 8 dereferenceable(96) ptr @_ZNKRSt8optionalI14blst_p1_affineEdeEv(ptr noundef nonnull align 8 dereferenceable(104) %0) #0 comdat align 2 {
  %2 = alloca ptr, align 8
  store ptr %0, ptr %2, align 8, !tbaa !10
  %3 = load ptr, ptr %2, align 8
  %4 = call noundef nonnull align 8 dereferenceable(96) ptr @_ZNKSt19_Optional_base_implI14blst_p1_affineSt14_Optional_baseIS0_Lb1ELb1EEE6_M_getEv(ptr noundef nonnull align 1 dereferenceable(1) %3) #14
  ret ptr %4
}

; Function Attrs: mustprogress nounwind uwtable
define linkonce_odr hidden noundef zeroext i1 @_ZNKSt8optionalI14blst_p1_affineE9has_valueEv(ptr noundef nonnull align 8 dereferenceable(104) %0) #0 comdat align 2 {
  %2 = alloca ptr, align 8
  store ptr %0, ptr %2, align 8, !tbaa !10
  %3 = load ptr, ptr %2, align 8
  %4 = call noundef zeroext i1 @_ZNKSt19_Optional_base_implI14blst_p1_affineSt14_Optional_baseIS0_Lb1ELb1EEE13_M_is_engagedEv(ptr noundef nonnull align 1 dereferenceable(1) %3) #14
  ret i1 %4
}

; Function Attrs: mustprogress nounwind uwtable
define hidden noundef zeroext i1 @_ZN6evmone6crypto3bls6g1_addEPhS2_PKhS4_S4_S4_(ptr noundef %0, ptr noundef %1, ptr noundef %2, ptr noundef %3, ptr noundef %4, ptr noundef %5) #0 personality ptr @__gxx_personality_v0 {
  %7 = alloca i1, align 1
  %8 = alloca ptr, align 8
  %9 = alloca ptr, align 8
  %10 = alloca ptr, align 8
  %11 = alloca ptr, align 8
  %12 = alloca ptr, align 8
  %13 = alloca ptr, align 8
  %14 = alloca %"class.std::optional", align 8
  %15 = alloca %"class.std::optional", align 8
  %16 = alloca i32, align 4
  %17 = alloca %struct.blst_p1, align 8
  %18 = alloca %struct.blst_p1, align 8
  %19 = alloca %struct.blst_p1_affine, align 8
  store ptr %0, ptr %8, align 8, !tbaa !3
  store ptr %1, ptr %9, align 8, !tbaa !3
  store ptr %2, ptr %10, align 8, !tbaa !3
  store ptr %3, ptr %11, align 8, !tbaa !3
  store ptr %4, ptr %12, align 8, !tbaa !3
  store ptr %5, ptr %13, align 8, !tbaa !3
  call void @llvm.lifetime.start.p0(ptr %14) #14
  %20 = load ptr, ptr %10, align 8, !tbaa !3
  %21 = load ptr, ptr %11, align 8, !tbaa !3
  call void @_ZN6evmone6crypto3bls12_GLOBAL__N_111validate_p1EPKhS4_(ptr dead_on_unwind writable sret(%"class.std::optional") align 8 %14, ptr noundef %20, ptr noundef %21) #14
  call void @llvm.lifetime.start.p0(ptr %15) #14
  %22 = load ptr, ptr %12, align 8, !tbaa !3
  %23 = load ptr, ptr %13, align 8, !tbaa !3
  call void @_ZN6evmone6crypto3bls12_GLOBAL__N_111validate_p1EPKhS4_(ptr dead_on_unwind writable sret(%"class.std::optional") align 8 %15, ptr noundef %22, ptr noundef %23) #14
  %24 = call noundef zeroext i1 @_ZNKSt8optionalI14blst_p1_affineE9has_valueEv(ptr noundef nonnull align 8 dereferenceable(104) %14) #14
  br i1 %24, label %25, label %27

25:                                               ; preds = %6
  %26 = call noundef zeroext i1 @_ZNKSt8optionalI14blst_p1_affineE9has_valueEv(ptr noundef nonnull align 8 dereferenceable(104) %15) #14
  br i1 %26, label %28, label %27

27:                                               ; preds = %25, %6
  store i1 false, ptr %7, align 1
  store i32 1, ptr %16, align 4
  br label %40

28:                                               ; preds = %25
  call void @llvm.lifetime.start.p0(ptr %17) #14
  %29 = invoke noundef nonnull align 8 dereferenceable(96) ptr @_ZNKRSt8optionalI14blst_p1_affineEdeEv(ptr noundef nonnull align 8 dereferenceable(104) %14)
          to label %30 unwind label %42

30:                                               ; preds = %28
  invoke void @blst_p1_from_affine(ptr noundef %17, ptr noundef %29)
          to label %31 unwind label %42

31:                                               ; preds = %30
  call void @llvm.lifetime.start.p0(ptr %18) #14
  %32 = invoke noundef nonnull align 8 dereferenceable(96) ptr @_ZNKRSt8optionalI14blst_p1_affineEdeEv(ptr noundef nonnull align 8 dereferenceable(104) %15)
          to label %33 unwind label %42

33:                                               ; preds = %31
  invoke void @blst_p1_add_or_double_affine(ptr noundef %18, ptr noundef %17, ptr noundef %32)
          to label %34 unwind label %42

34:                                               ; preds = %33
  call void @llvm.lifetime.start.p0(ptr %19) #14
  invoke void @blst_p1_to_affine(ptr noundef %19, ptr noundef %18)
          to label %35 unwind label %42

35:                                               ; preds = %34
  %36 = load ptr, ptr %8, align 8, !tbaa !3
  %37 = getelementptr inbounds nuw %struct.blst_p1_affine, ptr %19, i32 0, i32 0
  call void @_ZN6evmone6crypto3bls12_GLOBAL__N_15storeEPhRK7blst_fp(ptr noundef %36, ptr noundef nonnull align 8 dereferenceable(48) %37) #14
  %38 = load ptr, ptr %9, align 8, !tbaa !3
  %39 = getelementptr inbounds nuw %struct.blst_p1_affine, ptr %19, i32 0, i32 1
  call void @_ZN6evmone6crypto3bls12_GLOBAL__N_15storeEPhRK7blst_fp(ptr noundef %38, ptr noundef nonnull align 8 dereferenceable(48) %39) #14
  store i1 true, ptr %7, align 1
  store i32 1, ptr %16, align 4
  call void @llvm.lifetime.end.p0(ptr %19) #14
  call void @llvm.lifetime.end.p0(ptr %18) #14
  call void @llvm.lifetime.end.p0(ptr %17) #14
  br label %40

40:                                               ; preds = %35, %27
  call void @llvm.lifetime.end.p0(ptr %15) #14
  call void @llvm.lifetime.end.p0(ptr %14) #14
  %41 = load i1, ptr %7, align 1
  ret i1 %41

42:                                               ; preds = %34, %33, %31, %30, %28
  %43 = landingpad { ptr, i32 }
          catch ptr null
  %44 = extractvalue { ptr, i32 } %43, 0
  call void @__clang_call_terminate(ptr %44) #15
  unreachable
}